target datalayout = "e-m:e-p270:32:32-p271:32:32-p272:64:64-i64:64-i128:128-f80:128-n8:16:32:64-S128"
target triple = "x86_64-pc-linux-gnu"

%struct._zval_struct = type { %union._zend_value, %union.anon, %union.anon.2 }
%union._zend_value = type { i64 }
%union.anon = type { i32 }
%union.anon.2 = type { i32 }
%struct._zend_executor_globals = type { %struct._zval_struct, %struct._zval_struct, [32 x ptr], ptr, ptr, %struct._zend_array, %struct._zend_array, ptr, i32, i32, ptr, ptr, ptr, ptr, ptr, ptr, i64, ptr, ptr, i32, i32, i64, i32, i32, i32, i8, i8, %struct.zend_atomic_bool_s, %struct.zend_atomic_bool_s, ptr, i64, ptr, ptr, %struct._zend_array, %struct._zend_array, i32, i8, %struct._zval_struct, %struct._zval_struct, %struct._zend_stack, %struct._zend_stack, %struct._zend_stack, ptr, i32, i32, i64, ptr, ptr, ptr, %struct._zend_objects_store, ptr, ptr, ptr, [3 x %struct._zend_op], ptr, i8, i8, i64, i32, i32, ptr, [16 x %struct._HashTableIterator], ptr, %union._zend_function, %struct._zend_op, %struct._zend_array, i64, %struct.zend_get_gc_buffer, ptr, ptr, ptr, i64, i8, i32, ptr, ptr, i64, %struct._zend_call_stack, i64, i64, [6 x ptr] }
%struct.zend_atomic_bool_s = type { i8 }
%struct._zend_stack = type { i32, i32, i32, ptr }
%struct._zend_objects_store = type { ptr, i32, i32, i32 }
%struct._HashTableIterator = type { ptr, i32, i32 }
%union._zend_function = type { %struct._zend_op_array }
%struct._zend_op_array = type { i8, [3 x i8], i32, ptr, ptr, ptr, i32, i32, ptr, ptr, ptr, ptr, i32, i32, i32, i32, ptr, ptr, ptr, ptr, ptr, i32, i32, ptr, ptr, ptr, i32, i32, i32, i32, ptr, ptr, [6 x ptr] }
%struct._zend_op = type { ptr, %union._znode_op, %union._znode_op, %union._znode_op, i32, i32, i8, i8, i8, i8 }
%union._znode_op = type { i32 }
%struct._zend_array = type { %struct._zend_refcounted_h, %union.anon.4, i32, %union.anon.6, i32, i32, i32, i32, i64, ptr }
%struct._zend_refcounted_h = type { i32, %union.anon.3 }
%union.anon.3 = type { i32 }
%union.anon.4 = type { i32 }
%union.anon.6 = type { ptr }
%struct.zend_get_gc_buffer = type { ptr, ptr, ptr }
%struct._zend_call_stack = type { ptr, i64 }
%struct.anon.7 = type { i8, [3 x i8], i32, ptr, ptr, ptr, i32, i32, ptr, ptr, ptr, ptr, i32 }
%struct._Bucket = type { %struct._zval_struct, i64, ptr }
%struct._zend_execute_data = type { ptr, ptr, ptr, ptr, %struct._zval_struct, ptr, ptr, ptr, ptr }
%struct._zend_string = type { %struct._zend_refcounted_h, i64, i64, [1 x i8] }

@executor_globals = external global %struct._zend_executor_globals, align 8

; Function Attrs: nounwind uwtable
define ptr @zend_rebuild_symbol_table() #0 {
  %1 = alloca ptr, align 8
  %2 = alloca i32, align 4
  %3 = alloca i32, align 4
  %4 = alloca ptr, align 8
  %5 = alloca ptr, align 8
  %6 = alloca i32, align 4
  %7 = alloca ptr, align 8
  %8 = alloca ptr, align 8
  %9 = alloca ptr, align 8
  %10 = alloca i32, align 4
  %11 = alloca i32, align 4
  %12 = alloca ptr, align 8
  %13 = alloca ptr, align 8
  %14 = alloca ptr, align 8
  %15 = alloca ptr, align 8
  %16 = alloca ptr, align 8
  %17 = alloca ptr, align 8
  %18 = alloca ptr, align 8
  %19 = load ptr, ptr getelementptr inbounds (%struct._zend_executor_globals, ptr @executor_globals, i32 0, i32 17), align 8
  store ptr %19, ptr %14, align 8
  br label %20

20:                                               ; preds = %41, %0
  %21 = load ptr, ptr %14, align 8
  %22 = icmp ne ptr %21, null
  br i1 %22, label %23, label %39

23:                                               ; preds = %20
  %24 = load ptr, ptr %14, align 8
  %25 = getelementptr inbounds %struct._zend_execute_data, ptr %24, i32 0, i32 3
  %26 = load ptr, ptr %25, align 8
  %27 = icmp ne ptr %26, null
  br i1 %27, label %28, label %37

28:                                               ; preds = %23
  %29 = load ptr, ptr %14, align 8
  %30 = getelementptr inbounds %struct._zend_execute_data, ptr %29, i32 0, i32 3
  %31 = load ptr, ptr %30, align 8
  %32 = getelementptr inbounds %struct.anon.7, ptr %31, i32 0, i32 0
  %33 = load i8, ptr %32, align 8
  %34 = zext i8 %33 to i32
  %35 = icmp ne i32 %34, 1
  %36 = xor i1 %35, true
  br label %37

37:                                               ; preds = %28, %23
  %38 = phi i1 [ true, %23 ], [ %36, %28 ]
  br label %39

39:                                               ; preds = %37, %20
  %40 = phi i1 [ false, %20 ], [ %38, %37 ]
  br i1 %40, label %41, label %45

41:                                               ; preds = %39
  %42 = load ptr, ptr %14, align 8
  %43 = getelementptr inbounds %struct._zend_execute_data, ptr %42, i32 0, i32 5
  %44 = load ptr, ptr %43, align 8
  store ptr %44, ptr %14, align 8
  br label %20

45:                                               ; preds = %39
  %46 = load ptr, ptr %14, align 8
  %47 = icmp ne ptr %46, null
  br i1 %47, label %49, label %48

48:                                               ; preds = %45
  store ptr null, ptr %13, align 8
  br label %271

49:                                               ; preds = %45
  %50 = load ptr, ptr %14, align 8
  %51 = getelementptr inbounds %struct._zend_execute_data, ptr %50, i32 0, i32 4
  %52 = getelementptr inbounds %struct._zval_struct, ptr %51, i32 0, i32 1
  %53 = load i32, ptr %52, align 8
  %54 = and i32 %53, 1048576
  %55 = icmp ne i32 %54, 0
  br i1 %55, label %56, label %60

56:                                               ; preds = %49
  %57 = load ptr, ptr %14, align 8
  %58 = getelementptr inbounds %struct._zend_execute_data, ptr %57, i32 0, i32 6
  %59 = load ptr, ptr %58, align 8
  store ptr %59, ptr %13, align 8
  br label %271

60:                                               ; preds = %49
  br label %61

61:                                               ; preds = %60
  br label %62

62:                                               ; preds = %61
  %63 = load ptr, ptr %14, align 8
  %64 = getelementptr inbounds %struct._zend_execute_data, ptr %63, i32 0, i32 4
  %65 = getelementptr inbounds %struct._zval_struct, ptr %64, i32 0, i32 1
  %66 = load i32, ptr %65, align 8
  %67 = or i32 %66, 1048576
  store i32 %67, ptr %65, align 8
  br label %68

68:                                               ; preds = %62
  br label %69

69:                                               ; preds = %68
  %70 = load ptr, ptr getelementptr inbounds (%struct._zend_executor_globals, ptr @executor_globals, i32 0, i32 4), align 8
  %71 = icmp ugt ptr %70, getelementptr inbounds (%struct._zend_executor_globals, ptr @executor_globals, i32 0, i32 2)
  br i1 %71, label %72, label %93

72:                                               ; preds = %69
  %73 = load ptr, ptr getelementptr inbounds (%struct._zend_executor_globals, ptr @executor_globals, i32 0, i32 4), align 8
  %74 = getelementptr inbounds ptr, ptr %73, i32 -1
  store ptr %74, ptr getelementptr inbounds (%struct._zend_executor_globals, ptr @executor_globals, i32 0, i32 4), align 8
  %75 = load ptr, ptr %74, align 8
  %76 = load ptr, ptr %14, align 8
  %77 = getelementptr inbounds %struct._zend_execute_data, ptr %76, i32 0, i32 6
  store ptr %75, ptr %77, align 8
  store ptr %75, ptr %15, align 8
  %78 = load ptr, ptr %14, align 8
  %79 = getelementptr inbounds %struct._zend_execute_data, ptr %78, i32 0, i32 3
  %80 = load ptr, ptr %79, align 8
  %81 = getelementptr inbounds %struct._zend_op_array, ptr %80, i32 0, i32 14
  %82 = load i32, ptr %81, align 8
  %83 = icmp ne i32 %82, 0
  br i1 %83, label %86, label %84

84:                                               ; preds = %72
  %85 = load ptr, ptr %15, align 8
  store ptr %85, ptr %13, align 8
  br label %271

86:                                               ; preds = %72
  %87 = load ptr, ptr %15, align 8
  %88 = load ptr, ptr %14, align 8
  %89 = getelementptr inbounds %struct._zend_execute_data, ptr %88, i32 0, i32 3
  %90 = load ptr, ptr %89, align 8
  %91 = getelementptr inbounds %struct._zend_op_array, ptr %90, i32 0, i32 14
  %92 = load i32, ptr %91, align 8
  call void @zend_hash_extend(ptr noundef %87, i32 noundef %92, i1 noundef zeroext false)
  br label %139

93:                                               ; preds = %69
  %94 = load ptr, ptr %14, align 8
  %95 = getelementptr inbounds %struct._zend_execute_data, ptr %94, i32 0, i32 3
  %96 = load ptr, ptr %95, align 8
  %97 = getelementptr inbounds %struct._zend_op_array, ptr %96, i32 0, i32 14
  %98 = load i32, ptr %97, align 8
  %99 = call i1 @llvm.is.constant.i32(i32 %98)
  br i1 %99, label %100, label %118

100:                                              ; preds = %93
  %101 = load ptr, ptr %14, align 8
  %102 = getelementptr inbounds %struct._zend_execute_data, ptr %101, i32 0, i32 3
  %103 = load ptr, ptr %102, align 8
  %104 = getelementptr inbounds %struct._zend_op_array, ptr %103, i32 0, i32 14
  %105 = load i32, ptr %104, align 8
  %106 = icmp ule i32 %105, 8
  br i1 %106, label %107, label %109

107:                                              ; preds = %100
  %108 = call ptr @_zend_new_array_0()
  br label %116

109:                                              ; preds = %100
  %110 = load ptr, ptr %14, align 8
  %111 = getelementptr inbounds %struct._zend_execute_data, ptr %110, i32 0, i32 3
  %112 = load ptr, ptr %111, align 8
  %113 = getelementptr inbounds %struct._zend_op_array, ptr %112, i32 0, i32 14
  %114 = load i32, ptr %113, align 8
  %115 = call ptr @_zend_new_array(i32 noundef %114)
  br label %116

116:                                              ; preds = %109, %107
  %117 = phi ptr [ %108, %107 ], [ %115, %109 ]
  br label %125

118:                                              ; preds = %93
  %119 = load ptr, ptr %14, align 8
  %120 = getelementptr inbounds %struct._zend_execute_data, ptr %119, i32 0, i32 3
  %121 = load ptr, ptr %120, align 8
  %122 = getelementptr inbounds %struct._zend_op_array, ptr %121, i32 0, i32 14
  %123 = load i32, ptr %122, align 8
  %124 = call ptr @_zend_new_array(i32 noundef %123)
  br label %125

125:                                              ; preds = %118, %116
  %126 = phi ptr [ %117, %116 ], [ %124, %118 ]
  %127 = load ptr, ptr %14, align 8
  %128 = getelementptr inbounds %struct._zend_execute_data, ptr %127, i32 0, i32 6
  store ptr %126, ptr %128, align 8
  store ptr %126, ptr %15, align 8
  %129 = load ptr, ptr %14, align 8
  %130 = getelementptr inbounds %struct._zend_execute_data, ptr %129, i32 0, i32 3
  %131 = load ptr, ptr %130, align 8
  %132 = getelementptr inbounds %struct._zend_op_array, ptr %131, i32 0, i32 14
  %133 = load i32, ptr %132, align 8
  %134 = icmp ne i32 %133, 0
  br i1 %134, label %137, label %135

135:                                              ; preds = %125
  %136 = load ptr, ptr %15, align 8
  store ptr %136, ptr %13, align 8
  br label %271

137:                                              ; preds = %125
  %138 = load ptr, ptr %15, align 8
  call void @zend_hash_real_init_mixed(ptr noundef %138)
  br label %139

139:                                              ; preds = %137, %86
  %140 = load ptr, ptr %14, align 8
  %141 = getelementptr inbounds %struct._zend_execute_data, ptr %140, i32 0, i32 3
  %142 = load ptr, ptr %141, align 8
  %143 = getelementptr inbounds %struct._zend_op_array, ptr %142, i32 0, i32 14
  %144 = load i32, ptr %143, align 8
  %145 = icmp ne i32 %144, 0
  %146 = xor i1 %145, true
  %147 = xor i1 %146, true
  %148 = zext i1 %147 to i32
  %149 = sext i32 %148 to i64
  %150 = icmp ne i64 %149, 0
  br i1 %150, label %151, label %269

151:                                              ; preds = %139
  %152 = load ptr, ptr %14, align 8
  %153 = getelementptr inbounds %struct._zend_execute_data, ptr %152, i32 0, i32 3
  %154 = load ptr, ptr %153, align 8
  %155 = getelementptr inbounds %struct._zend_op_array, ptr %154, i32 0, i32 19
  %156 = load ptr, ptr %155, align 8
  store ptr %156, ptr %16, align 8
  %157 = load ptr, ptr %16, align 8
  %158 = load ptr, ptr %14, align 8
  %159 = getelementptr inbounds %struct._zend_execute_data, ptr %158, i32 0, i32 3
  %160 = load ptr, ptr %159, align 8
  %161 = getelementptr inbounds %struct._zend_op_array, ptr %160, i32 0, i32 14
  %162 = load i32, ptr %161, align 8
  %163 = sext i32 %162 to i64
  %164 = getelementptr inbounds ptr, ptr %157, i64 %163
  store ptr %164, ptr %17, align 8
  %165 = load ptr, ptr %14, align 8
  %166 = getelementptr inbounds %struct._zval_struct, ptr %165, i64 5
  store ptr %166, ptr %18, align 8
  br label %167

167:                                              ; preds = %264, %151
  %168 = load ptr, ptr %15, align 8
  %169 = load ptr, ptr %16, align 8
  %170 = load ptr, ptr %169, align 8
  %171 = load ptr, ptr %18, align 8
  store ptr %168, ptr %7, align 8
  store ptr %170, ptr %8, align 8
  store ptr %171, ptr %9, align 8
  %172 = load ptr, ptr %7, align 8
  %173 = getelementptr inbounds %struct._zend_array, ptr %172, i32 0, i32 4
  %174 = load i32, ptr %173, align 8
  %175 = add i32 %174, 1
  store i32 %175, ptr %173, align 8
  store i32 %174, ptr %10, align 4
  %176 = load ptr, ptr %7, align 8
  %177 = getelementptr inbounds %struct._zend_array, ptr %176, i32 0, i32 3
  %178 = load ptr, ptr %177, align 8
  %179 = load i32, ptr %10, align 4
  %180 = zext i32 %179 to i64
  %181 = getelementptr inbounds %struct._Bucket, ptr %178, i64 %180
  store ptr %181, ptr %12, align 8
  %182 = load ptr, ptr %9, align 8
  %183 = load ptr, ptr %12, align 8
  store ptr %182, ptr %183, align 8
  %184 = load ptr, ptr %12, align 8
  %185 = getelementptr inbounds %struct._zval_struct, ptr %184, i32 0, i32 1
  store i32 12, ptr %185, align 8
  %186 = load ptr, ptr %8, align 8
  %187 = getelementptr inbounds %struct._zend_refcounted_h, ptr %186, i32 0, i32 1
  %188 = load i32, ptr %187, align 4
  store i32 %188, ptr %6, align 4
  %189 = load i32, ptr %6, align 4
  %190 = and i32 %189, 1008
  %191 = and i32 %190, 64
  %192 = icmp ne i32 %191, 0
  br i1 %192, label %223, label %193

193:                                              ; preds = %167
  %194 = load ptr, ptr %7, align 8
  %195 = getelementptr inbounds %struct._zend_array, ptr %194, i32 0, i32 1
  %196 = load i32, ptr %195, align 8
  %197 = and i32 %196, -17
  store i32 %197, ptr %195, align 8
  %198 = load ptr, ptr %8, align 8
  store ptr %198, ptr %4, align 8
  %199 = load ptr, ptr %4, align 8
  %200 = getelementptr inbounds %struct._zend_refcounted_h, ptr %199, i32 0, i32 1
  %201 = load i32, ptr %200, align 4
  store i32 %201, ptr %2, align 4
  %202 = load i32, ptr %2, align 4
  %203 = and i32 %202, 1008
  %204 = and i32 %203, 64
  %205 = icmp ne i32 %204, 0
  br i1 %205, label %211, label %206

206:                                              ; preds = %193
  %207 = load ptr, ptr %4, align 8
  store ptr %207, ptr %1, align 8
  %208 = load ptr, ptr %1, align 8
  %209 = load i32, ptr %208, align 4
  %210 = add i32 %209, 1
  store i32 %210, ptr %208, align 4
  store i32 %210, ptr %3, align 4
  br label %212

211:                                              ; preds = %193
  store i32 1, ptr %3, align 4
  br label %212

212:                                              ; preds = %211, %206
  %213 = load ptr, ptr %8, align 8
  store ptr %213, ptr %5, align 8
  %214 = load ptr, ptr %5, align 8
  %215 = getelementptr inbounds %struct._zend_string, ptr %214, i32 0, i32 1
  %216 = load i64, ptr %215, align 8
  %217 = icmp ne i64 %216, 0
  br i1 %217, label %218, label %219

218:                                              ; preds = %212
  br label %222

219:                                              ; preds = %212
  %220 = load ptr, ptr %5, align 8
  %221 = call i64 @zend_string_hash_func(ptr noundef %220) #14
  br label %222

222:                                              ; preds = %219, %218
  br label %223

223:                                              ; preds = %222, %167
  %224 = load ptr, ptr %8, align 8
  %225 = load ptr, ptr %12, align 8
  %226 = getelementptr inbounds %struct._Bucket, ptr %225, i32 0, i32 2
  store ptr %224, ptr %226, align 8
  %227 = load ptr, ptr %8, align 8
  %228 = getelementptr inbounds %struct._zend_string, ptr %227, i32 0, i32 1
  %229 = load i64, ptr %228, align 8
  %230 = load ptr, ptr %12, align 8
  %231 = getelementptr inbounds %struct._Bucket, ptr %230, i32 0, i32 1
  store i64 %229, ptr %231, align 8
  %232 = load ptr, ptr %12, align 8
  %233 = getelementptr inbounds %struct._Bucket, ptr %232, i32 0, i32 1
  %234 = load i64, ptr %233, align 8
  %235 = trunc i64 %234 to i32
  %236 = load ptr, ptr %7, align 8
  %237 = getelementptr inbounds %struct._zend_array, ptr %236, i32 0, i32 2
  %238 = load i32, ptr %237, align 4
  %239 = or i32 %235, %238
  store i32 %239, ptr %11, align 4
  %240 = load ptr, ptr %7, align 8
  %241 = getelementptr inbounds %struct._zend_array, ptr %240, i32 0, i32 3
  %242 = load ptr, ptr %241, align 8
  %243 = load i32, ptr %11, align 4
  %244 = sext i32 %243 to i64
  %245 = getelementptr inbounds i32, ptr %242, i64 %244
  %246 = load i32, ptr %245, align 4
  %247 = load ptr, ptr %12, align 8
  %248 = getelementptr inbounds %struct._zval_struct, ptr %247, i32 0, i32 2
  store i32 %246, ptr %248, align 4
  %249 = load i32, ptr %10, align 4
  %250 = load ptr, ptr %7, align 8
  %251 = getelementptr inbounds %struct._zend_array, ptr %250, i32 0, i32 3
  %252 = load ptr, ptr %251, align 8
  %253 = load i32, ptr %11, align 4
  %254 = sext i32 %253 to i64
  %255 = getelementptr inbounds i32, ptr %252, i64 %254
  store i32 %249, ptr %255, align 4
  %256 = load ptr, ptr %7, align 8
  %257 = getelementptr inbounds %struct._zend_array, ptr %256, i32 0, i32 5
  %258 = load i32, ptr %257, align 4
  %259 = add i32 %258, 1
  store i32 %259, ptr %257, align 4
  %260 = load ptr, ptr %16, align 8
  %261 = getelementptr inbounds ptr, ptr %260, i32 1
  store ptr %261, ptr %16, align 8
  %262 = load ptr, ptr %18, align 8
  %263 = getelementptr inbounds %struct._zval_struct, ptr %262, i32 1
  store ptr %263, ptr %18, align 8
  br label %264

264:                                              ; preds = %223
  %265 = load ptr, ptr %16, align 8
  %266 = load ptr, ptr %17, align 8
  %267 = icmp ne ptr %265, %266
  br i1 %267, label %167, label %268

268:                                              ; preds = %264
  br label %269

269:                                              ; preds = %268, %139
  %270 = load ptr, ptr %15, align 8
  store ptr %270, ptr %13, align 8
  br label %271

271:                                              ; preds = %269, %135, %84, %56, %48
  %272 = load ptr, ptr %13, align 8
  ret ptr %272
}