; Function Attrs: nounwind uwtable
define ptr @zend_rebuild_symbol_table() local_unnamed_addr #0 {
  %.06890 = load ptr, ptr getelementptr inbounds (%struct._zend_executor_globals, ptr @executor_globals, i64 0, i32 17), align 8
  %.not91 = icmp eq ptr %.06890, null
  br i1 %.not91, label %.critedge86, label %.lr.ph

.lr.ph:                                           ; preds = %0, %.critedge2
  %.06892 = phi ptr [ %.068, %.critedge2 ], [ %.06890, %0 ]
  %1 = getelementptr inbounds i8, ptr %.06892, i64 24
  %2 = load ptr, ptr %1, align 8
  %.not76 = icmp eq ptr %2, null
  br i1 %.not76, label %.critedge2, label %3

3:                                                ; preds = %.lr.ph
  %4 = load i8, ptr %2, align 8
  %.not77 = icmp eq i8 %4, 1
  br i1 %.not77, label %.critedge2, label %.critedge

.critedge2:                                       ; preds = %.lr.ph, %3
  %5 = getelementptr inbounds i8, ptr %.06892, i64 48
  %.068 = load ptr, ptr %5, align 8
  %.not = icmp eq ptr %.068, null
  br i1 %.not, label %.critedge86, label %.lr.ph

.critedge:                                        ; preds = %3
  %6 = getelementptr inbounds i8, ptr %.06892, i64 24
  %7 = getelementptr inbounds i8, ptr %.06892, i64 40
  %8 = load i32, ptr %7, align 8
  %9 = and i32 %8, 1048576
  %.not78 = icmp eq i32 %9, 0
  br i1 %.not78, label %13, label %10

10:                                               ; preds = %.critedge
  %11 = getelementptr inbounds i8, ptr %.06892, i64 56
  %12 = load ptr, ptr %11, align 8
  br label %.critedge86

13:                                               ; preds = %.critedge
  %14 = or disjoint i32 %8, 1048576
  store i32 %14, ptr %7, align 8
  %15 = load ptr, ptr getelementptr inbounds (%struct._zend_executor_globals, ptr @executor_globals, i64 0, i32 4), align 8
  %16 = icmp ugt ptr %15, getelementptr inbounds (%struct._zend_executor_globals, ptr @executor_globals, i64 0, i32 2)
  %17 = getelementptr inbounds i8, ptr %.06892, i64 56
  br i1 %16, label %18, label %25

18:                                               ; preds = %13
  %19 = getelementptr inbounds i8, ptr %15, i64 -8
  store ptr %19, ptr getelementptr inbounds (%struct._zend_executor_globals, ptr @executor_globals, i64 0, i32 4), align 8
  %20 = load ptr, ptr %19, align 8
  store ptr %20, ptr %17, align 8
  %21 = load ptr, ptr %6, align 8
  %22 = getelementptr inbounds i8, ptr %21, i64 80
  %23 = load i32, ptr %22, align 8
  %.not80 = icmp eq i32 %23, 0
  br i1 %.not80, label %.critedge86, label %24

24:                                               ; preds = %18
  tail call void @zend_hash_extend(ptr noundef %20, i32 noundef %23, i1 noundef zeroext false) #24
  br label %33

25:                                               ; preds = %13
  %26 = getelementptr inbounds i8, ptr %2, i64 80
  %27 = load i32, ptr %26, align 8
  %28 = tail call ptr @_zend_new_array(i32 noundef %27) #24
  store ptr %28, ptr %17, align 8
  %29 = load ptr, ptr %6, align 8
  %30 = getelementptr inbounds i8, ptr %29, i64 80
  %31 = load i32, ptr %30, align 8
  %.not79 = icmp eq i32 %31, 0
  br i1 %.not79, label %.critedge86, label %32

32:                                               ; preds = %25
  tail call void @zend_hash_real_init_mixed(ptr noundef %28) #24
  br label %33

33:                                               ; preds = %32, %24
  %.067 = phi ptr [ %20, %24 ], [ %28, %32 ]
  %34 = load ptr, ptr %6, align 8
  %35 = getelementptr inbounds i8, ptr %34, i64 80
  %36 = load i32, ptr %35, align 8
  %.not81 = icmp eq i32 %36, 0
  br i1 %.not81, label %.critedge86, label %37

37:                                               ; preds = %33
  %38 = getelementptr inbounds i8, ptr %34, i64 112
  %39 = load ptr, ptr %38, align 8
  %40 = sext i32 %36 to i64
  %41 = getelementptr inbounds ptr, ptr %39, i64 %40
  %42 = getelementptr inbounds i8, ptr %.06892, i64 80
  %43 = getelementptr inbounds i8, ptr %.067, i64 24
  %44 = getelementptr inbounds i8, ptr %.067, i64 16
  %45 = getelementptr inbounds i8, ptr %.067, i64 8
  %46 = getelementptr inbounds i8, ptr %.067, i64 12
  %47 = getelementptr inbounds i8, ptr %.067, i64 28
  br label %48

48:                                               ; preds = %72, %37
  %.066 = phi ptr [ %39, %37 ], [ %89, %72 ]
  %.0 = phi ptr [ %42, %37 ], [ %90, %72 ]
  %49 = load ptr, ptr %.066, align 8
  %50 = load i32, ptr %43, align 8
  %51 = add i32 %50, 1
  store i32 %51, ptr %43, align 8
  %52 = load ptr, ptr %44, align 8
  %53 = zext i32 %50 to i64
  %54 = getelementptr inbounds %struct._Bucket, ptr %52, i64 %53
  store ptr %.0, ptr %54, align 8
  %55 = getelementptr inbounds i8, ptr %54, i64 8
  store i32 12, ptr %55, align 8
  %56 = getelementptr inbounds i8, ptr %49, i64 4
  %57 = load i32, ptr %56, align 4
  %58 = and i32 %57, 64
  %.not82 = icmp eq i32 %58, 0
  br i1 %.not82, label %59, label %72

59:                                               ; preds = %48
  %60 = load i32, ptr %45, align 8
  %61 = and i32 %60, -17
  store i32 %61, ptr %45, align 8
  %62 = load i32, ptr %56, align 4
  %63 = and i32 %62, 64
  %.not83 = icmp eq i32 %63, 0
  br i1 %.not83, label %64, label %67

64:                                               ; preds = %59
  %65 = load i32, ptr %49, align 4
  %66 = add i32 %65, 1
  store i32 %66, ptr %49, align 4
  br label %67

67:                                               ; preds = %59, %64
  %68 = getelementptr inbounds i8, ptr %49, i64 8
  %69 = load i64, ptr %68, align 8
  %.not84 = icmp eq i64 %69, 0
  br i1 %.not84, label %70, label %72

70:                                               ; preds = %67
  %71 = tail call i64 @zend_string_hash_func(ptr noundef nonnull %49) #24
  br label %72

72:                                               ; preds = %70, %67, %48
  %73 = getelementptr inbounds i8, ptr %54, i64 24
  store ptr %49, ptr %73, align 8
  %74 = getelementptr inbounds i8, ptr %49, i64 8
  %75 = load i64, ptr %74, align 8
  %76 = getelementptr inbounds i8, ptr %54, i64 16
  store i64 %75, ptr %76, align 8
  %77 = trunc i64 %75 to i32
  %78 = load i32, ptr %46, align 4
  %79 = or i32 %78, %77
  %80 = load ptr, ptr %44, align 8
  %81 = sext i32 %79 to i64
  %82 = getelementptr inbounds i32, ptr %80, i64 %81
  %83 = load i32, ptr %82, align 4
  %84 = getelementptr inbounds i8, ptr %54, i64 12
  store i32 %83, ptr %84, align 4
  %85 = load ptr, ptr %44, align 8
  %86 = getelementptr inbounds i32, ptr %85, i64 %81
  store i32 %50, ptr %86, align 4
  %87 = load i32, ptr %47, align 4
  %88 = add i32 %87, 1
  store i32 %88, ptr %47, align 4
  %89 = getelementptr inbounds i8, ptr %.066, i64 8
  %90 = getelementptr inbounds i8, ptr %.0, i64 16
  %.not85 = icmp eq ptr %89, %41
  br i1 %.not85, label %.critedge86, label %48

.critedge86:                                      ; preds = %.critedge2, %72, %0, %33, %25, %18, %10
  %.069 = phi ptr [ %12, %10 ], [ %20, %18 ], [ %28, %25 ], [ %.067, %33 ], [ null, %0 ], [ %.067, %72 ], [ null, %.critedge2 ]
  ret ptr %.069
}